; Function Attrs: nounwind uwtable
define dso_local void @commandCountCommand(ptr noundef %c) local_unnamed_addr #0 {
entry:
  %0 = load ptr, ptr getelementptr inbounds (%struct.redisServer, ptr @server, i64 0, i32 12), align 8
  %ht_used = getelementptr inbounds i8, ptr %0, i64 24
  %1 = load i64, ptr %ht_used, align 8
  %arrayidx2 = getelementptr inbounds i8, ptr %0, i64 32
  %2 = load i64, ptr %arrayidx2, align 8
  %add = add i64 %2, %1
  tail call void @addReplyLongLong(ptr noundef %c, i64 noundef %add) #38
  ret void
}